target datalayout = "e-m:e-p270:32:32-p271:32:32-p272:64:64-i64:64-i128:128-f80:128-n8:16:32:64-S128"
target triple = "x86_64-pc-linux-gnu"

%struct.FFZStream = type { %struct.z_stream_s, i32 }
%struct.z_stream_s = type { ptr, i32, i64, ptr, i32, i64, ptr, ptr, ptr, ptr, ptr, i32, i64, i64 }
%struct.AVBPrint = type { ptr, i32, i32, i32, [1 x i8], [1000 x i8] }

; Function Attrs: nounwind uwtable
define internal i32 @decode_zbuf(ptr noundef %0, ptr noundef %1, ptr noundef %2, ptr noundef %3) #0 {
  %5 = alloca i32, align 4
  %6 = alloca ptr, align 8
  %7 = alloca ptr, align 8
  %8 = alloca ptr, align 8
  %9 = alloca ptr, align 8
  %10 = alloca %struct.FFZStream, align 8
  %11 = alloca ptr, align 8
  %12 = alloca ptr, align 8
  %13 = alloca i32, align 4
  %14 = alloca i32, align 4
  %15 = alloca i32, align 4
  store ptr %0, ptr %6, align 8, !tbaa !244
  store ptr %1, ptr %7, align 8, !tbaa !4
  store ptr %2, ptr %8, align 8, !tbaa !4
  store ptr %3, ptr %9, align 8, !tbaa !246
  call void @llvm.lifetime.start.p0(i64 120, ptr %10) #13
  call void @llvm.lifetime.start.p0(i64 8, ptr %11) #13
  %16 = getelementptr inbounds nuw %struct.FFZStream, ptr %10, i32 0, i32 0
  store ptr %16, ptr %11, align 8, !tbaa !230
  call void @llvm.lifetime.start.p0(i64 8, ptr %12) #13
  call void @llvm.lifetime.start.p0(i64 4, ptr %13) #13
  call void @llvm.lifetime.start.p0(i64 4, ptr %14) #13
  %17 = load ptr, ptr %9, align 8, !tbaa !246
  %18 = call i32 @ff_inflate_init(ptr noundef %10, ptr noundef %17)
  store i32 %18, ptr %14, align 4, !tbaa !9
  %19 = load i32, ptr %14, align 4, !tbaa !9
  %20 = icmp slt i32 %19, 0
  br i1 %20, label %21, label %23

21:                                               ; preds = %4
  %22 = load i32, ptr %14, align 4, !tbaa !9
  store i32 %22, ptr %5, align 4
  store i32 1, ptr %15, align 4
  br label %93

23:                                               ; preds = %4
  %24 = load ptr, ptr %7, align 8, !tbaa !4
  %25 = load ptr, ptr %11, align 8, !tbaa !230
  %26 = getelementptr inbounds nuw %struct.z_stream_s, ptr %25, i32 0, i32 0
  store ptr %24, ptr %26, align 8, !tbaa !233
  %27 = load ptr, ptr %8, align 8, !tbaa !4
  %28 = load ptr, ptr %7, align 8, !tbaa !4
  %29 = ptrtoint ptr %27 to i64
  %30 = ptrtoint ptr %28 to i64
  %31 = sub i64 %29, %30
  %32 = trunc i64 %31 to i32
  %33 = load ptr, ptr %11, align 8, !tbaa !230
  %34 = getelementptr inbounds nuw %struct.z_stream_s, ptr %33, i32 0, i32 1
  store i32 %32, ptr %34, align 8, !tbaa !232
  %35 = load ptr, ptr %6, align 8, !tbaa !244
  call void @av_bprint_init(ptr noundef %35, i32 noundef 0, i32 noundef -1)
  br label %36

36:                                               ; preds = %79, %23
  %37 = load ptr, ptr %11, align 8, !tbaa !230
  %38 = getelementptr inbounds nuw %struct.z_stream_s, ptr %37, i32 0, i32 1
  %39 = load i32, ptr %38, align 8, !tbaa !232
  %40 = icmp ugt i32 %39, 0
  br i1 %40, label %41, label %80

41:                                               ; preds = %36
  %42 = load ptr, ptr %6, align 8, !tbaa !244
  call void @av_bprint_get_buffer(ptr noundef %42, i32 noundef 2, ptr noundef %12, ptr noundef %13)
  %43 = load i32, ptr %13, align 4, !tbaa !9
  %44 = icmp ult i32 %43, 2
  br i1 %44, label %45, label %46

45:                                               ; preds = %41
  store i32 -12, ptr %14, align 4, !tbaa !9
  br label %89

46:                                               ; preds = %41
  %47 = load ptr, ptr %12, align 8, !tbaa !4
  %48 = load ptr, ptr %11, align 8, !tbaa !230
  %49 = getelementptr inbounds nuw %struct.z_stream_s, ptr %48, i32 0, i32 3
  store ptr %47, ptr %49, align 8, !tbaa !235
  %50 = load i32, ptr %13, align 4, !tbaa !9
  %51 = sub i32 %50, 1
  %52 = load ptr, ptr %11, align 8, !tbaa !230
  %53 = getelementptr inbounds nuw %struct.z_stream_s, ptr %52, i32 0, i32 4
  store i32 %51, ptr %53, align 8, !tbaa !234
  %54 = load ptr, ptr %11, align 8, !tbaa !230
  %55 = call i32 @inflate(ptr noundef %54, i32 noundef 1)
  store i32 %55, ptr %14, align 4, !tbaa !9
  %56 = load i32, ptr %14, align 4, !tbaa !9
  %57 = icmp ne i32 %56, 0
  br i1 %57, label %58, label %62

58:                                               ; preds = %46
  %59 = load i32, ptr %14, align 4, !tbaa !9
  %60 = icmp ne i32 %59, 1
  br i1 %60, label %61, label %62

61:                                               ; preds = %58
  store i32 -542398533, ptr %14, align 4, !tbaa !9
  br label %89

62:                                               ; preds = %58, %46
  %63 = load ptr, ptr %11, align 8, !tbaa !230
  %64 = getelementptr inbounds nuw %struct.z_stream_s, ptr %63, i32 0, i32 3
  %65 = load ptr, ptr %64, align 8, !tbaa !235
  %66 = load ptr, ptr %12, align 8, !tbaa !4
  %67 = ptrtoint ptr %65 to i64
  %68 = ptrtoint ptr %66 to i64
  %69 = sub i64 %67, %68
  %70 = load ptr, ptr %6, align 8, !tbaa !244
  %71 = getelementptr inbounds nuw %struct.AVBPrint, ptr %70, i32 0, i32 1
  %72 = load i32, ptr %71, align 8, !tbaa !182
  %73 = zext i32 %72 to i64
  %74 = add nsw i64 %73, %69
  %75 = trunc i64 %74 to i32
  store i32 %75, ptr %71, align 8, !tbaa !182
  %76 = load i32, ptr %14, align 4, !tbaa !9
  %77 = icmp eq i32 %76, 1
  br i1 %77, label %78, label %79

78:                                               ; preds = %62
  br label %80

79:                                               ; preds = %62
  br label %36, !llvm.loop !247

80:                                               ; preds = %78, %36
  call void @ff_inflate_end(ptr noundef %10)
  %81 = load ptr, ptr %6, align 8, !tbaa !244
  %82 = getelementptr inbounds nuw %struct.AVBPrint, ptr %81, i32 0, i32 0
  %83 = load ptr, ptr %82, align 8, !tbaa !180
  %84 = load ptr, ptr %6, align 8, !tbaa !244
  %85 = getelementptr inbounds nuw %struct.AVBPrint, ptr %84, i32 0, i32 1
  %86 = load i32, ptr %85, align 8, !tbaa !182
  %87 = zext i32 %86 to i64
  %88 = getelementptr inbounds nuw i8, ptr %83, i64 %87
  store i8 0, ptr %88, align 1, !tbaa !11
  store i32 0, ptr %5, align 4
  store i32 1, ptr %15, align 4
  br label %93

89:                                               ; preds = %61, %45
  call void @ff_inflate_end(ptr noundef %10)
  %90 = load ptr, ptr %6, align 8, !tbaa !244
  %91 = call i32 @av_bprint_finalize(ptr noundef %90, ptr noundef null)
  %92 = load i32, ptr %14, align 4, !tbaa !9
  store i32 %92, ptr %5, align 4
  store i32 1, ptr %15, align 4
  br label %93

93:                                               ; preds = %89, %80, %21
  call void @llvm.lifetime.end.p0(i64 4, ptr %14) #13
  call void @llvm.lifetime.end.p0(i64 4, ptr %13) #13
  call void @llvm.lifetime.end.p0(i64 8, ptr %12) #13
  call void @llvm.lifetime.end.p0(i64 8, ptr %11) #13
  call void @llvm.lifetime.end.p0(i64 120, ptr %10) #13
  %94 = load i32, ptr %5, align 4
  ret i32 %94
}