; Function Attrs: nounwind uwtable
define internal fastcc range(i32 -2147483648, 1) i32 @decode_zbuf(ptr noundef nonnull %0, ptr noundef %1, ptr noundef %2, ptr noundef %3) unnamed_addr #3 {
  %5 = alloca %struct.FFZStream, align 8
  %6 = alloca ptr, align 8
  %7 = alloca i32, align 4
  call void @llvm.lifetime.start.p0(i64 120, ptr nonnull %5) #13
  call void @llvm.lifetime.start.p0(i64 8, ptr nonnull %6) #13
  call void @llvm.lifetime.start.p0(i64 4, ptr nonnull %7) #13
  %8 = call i32 @ff_inflate_init(ptr noundef nonnull %5, ptr noundef %3) #13
  %9 = icmp slt i32 %8, 0
  br i1 %9, label %44, label %10

10:                                               ; preds = %4
  store ptr %1, ptr %5, align 8, !tbaa !169
  %11 = ptrtoint ptr %2 to i64
  %12 = ptrtoint ptr %1 to i64
  %13 = sub i64 %11, %12
  %14 = trunc i64 %13 to i32
  %15 = getelementptr inbounds nuw i8, ptr %5, i64 8
  store i32 %14, ptr %15, align 8, !tbaa !168
  call void @av_bprint_init(ptr noundef nonnull %0, i32 noundef 0, i32 noundef -1) #13
  %.old = load i32, ptr %15, align 8, !tbaa !168
  %.not.old = icmp eq i32 %.old, 0
  br i1 %.not.old, label %.loopexit, label %.preheader

.preheader:                                       ; preds = %10
  %16 = getelementptr inbounds nuw i8, ptr %5, i64 24
  %17 = getelementptr inbounds nuw i8, ptr %5, i64 32
  %18 = getelementptr inbounds nuw i8, ptr %0, i64 8
  br label %19

19:                                               ; preds = %.preheader, %26
  call void @av_bprint_get_buffer(ptr noundef nonnull %0, i32 noundef 2, ptr noundef nonnull %6, ptr noundef nonnull %7) #13
  %20 = load i32, ptr %7, align 4, !tbaa !10
  %21 = icmp ult i32 %20, 2
  br i1 %21, label %42, label %22

22:                                               ; preds = %19
  %23 = load ptr, ptr %6, align 8, !tbaa !99
  store ptr %23, ptr %16, align 8, !tbaa !177
  %24 = add i32 %20, -1
  store i32 %24, ptr %17, align 8, !tbaa !170
  %25 = call i32 @inflate(ptr noundef nonnull %5, i32 noundef 1) #13
  %or.cond = icmp ugt i32 %25, 1
  br i1 %or.cond, label %42, label %26

26:                                               ; preds = %22
  %27 = load ptr, ptr %16, align 8, !tbaa !177
  %28 = load ptr, ptr %6, align 8, !tbaa !99
  %29 = ptrtoint ptr %27 to i64
  %30 = ptrtoint ptr %28 to i64
  %31 = sub i64 %29, %30
  %32 = load i32, ptr %18, align 8, !tbaa !184
  %33 = trunc i64 %31 to i32
  %34 = add i32 %32, %33
  store i32 %34, ptr %18, align 8, !tbaa !184
  %35 = icmp eq i32 %25, 1
  %36 = load i32, ptr %15, align 8
  %.not = icmp eq i32 %36, 0
  %or.cond26 = select i1 %35, i1 true, i1 %.not
  br i1 %or.cond26, label %.loopexit, label %19, !llvm.loop !223

.loopexit:                                        ; preds = %26, %10
  call void @ff_inflate_end(ptr noundef nonnull %5) #13
  %37 = load ptr, ptr %0, align 8, !tbaa !212
  %38 = getelementptr inbounds nuw i8, ptr %0, i64 8
  %39 = load i32, ptr %38, align 8, !tbaa !184
  %40 = zext i32 %39 to i64
  %41 = getelementptr inbounds nuw i8, ptr %37, i64 %40
  store i8 0, ptr %41, align 1, !tbaa !4
  br label %44

42:                                               ; preds = %22, %19
  %.0 = phi i32 [ -12, %19 ], [ -542398533, %22 ]
  call void @ff_inflate_end(ptr noundef nonnull %5) #13
  %43 = call i32 @av_bprint_finalize(ptr noundef nonnull %0, ptr noundef null) #13
  br label %44

44:                                               ; preds = %4, %42, %.loopexit
  %.024 = phi i32 [ %.0, %42 ], [ 0, %.loopexit ], [ %8, %4 ]
  call void @llvm.lifetime.end.p0(i64 4, ptr nonnull %7) #13
  call void @llvm.lifetime.end.p0(i64 8, ptr nonnull %6) #13
  call void @llvm.lifetime.end.p0(i64 120, ptr nonnull %5) #13
  ret i32 %.024
}